target datalayout = "e-m:e-p270:32:32-p271:32:32-p272:64:64-i64:64-i128:128-f80:128-n8:16:32:64-S128"
target triple = "x86_64-pc-linux-gnu"

%"class.pxrInternal_v0_24__pxrReserved__::Sdf_ParserValueContext" = type { i32, %"class.std::vector", i32, %"struct.pxrInternal_v0_24__pxrReserved__::SdfTupleDimensions", %"class.std::vector.0", %"class.std::vector", i32, %"class.std::__cxx11::basic_string", i8, %"class.std::__cxx11::basic_string", %"class.std::function", i8, %"struct.pxrInternal_v0_24__pxrReserved__::SdfTupleDimensions", %"class.std::function.8", i8, i8, %"class.std::__cxx11::basic_string" }
%"class.std::vector.0" = type { %"struct.std::_Vector_base.1" }
%"struct.std::_Vector_base.1" = type { %"struct.std::_Vector_base<pxrInternal_v0_24__pxrReserved__::Sdf_ParserHelpers::Value, std::allocator<pxrInternal_v0_24__pxrReserved__::Sdf_ParserHelpers::Value>>::_Vector_impl" }
%"struct.std::_Vector_base<pxrInternal_v0_24__pxrReserved__::Sdf_ParserHelpers::Value, std::allocator<pxrInternal_v0_24__pxrReserved__::Sdf_ParserHelpers::Value>>::_Vector_impl" = type { %"struct.std::_Vector_base<pxrInternal_v0_24__pxrReserved__::Sdf_ParserHelpers::Value, std::allocator<pxrInternal_v0_24__pxrReserved__::Sdf_ParserHelpers::Value>>::_Vector_impl_data" }
%"struct.std::_Vector_base<pxrInternal_v0_24__pxrReserved__::Sdf_ParserHelpers::Value, std::allocator<pxrInternal_v0_24__pxrReserved__::Sdf_ParserHelpers::Value>>::_Vector_impl_data" = type { ptr, ptr, ptr }
%"class.std::vector" = type { %"struct.std::_Vector_base" }
%"struct.std::_Vector_base" = type { %"struct.std::_Vector_base<unsigned int, std::allocator<unsigned int>>::_Vector_impl" }
%"struct.std::_Vector_base<unsigned int, std::allocator<unsigned int>>::_Vector_impl" = type { %"struct.std::_Vector_base<unsigned int, std::allocator<unsigned int>>::_Vector_impl_data" }
%"struct.std::_Vector_base<unsigned int, std::allocator<unsigned int>>::_Vector_impl_data" = type { ptr, ptr, ptr }
%"class.std::function" = type { %"class.std::_Function_base", ptr }
%"class.std::_Function_base" = type { %"union.std::_Any_data", ptr }
%"union.std::_Any_data" = type { %"union.std::_Nocopy_types" }
%"union.std::_Nocopy_types" = type { { i64, i64 } }
%"struct.pxrInternal_v0_24__pxrReserved__::SdfTupleDimensions" = type { [2 x i64], i64 }
%"class.std::function.8" = type { %"class.std::_Function_base", ptr }
%"class.std::__cxx11::basic_string" = type { %"struct.std::__cxx11::basic_string<char>::_Alloc_hider", i64, %union.anon }
%"struct.std::__cxx11::basic_string<char>::_Alloc_hider" = type { ptr }
%union.anon = type { i64, [8 x i8] }

; Function Attrs: mustprogress nounwind uwtable
define void @_ZN32pxrInternal_v0_24__pxrReserved__22Sdf_ParserValueContext20StartRecordingStringEv(ptr noundef nonnull align 8 dereferenceable(328) %0) #1 align 2 {
  %2 = alloca ptr, align 8
  store ptr %0, ptr %2, align 8
  %3 = load ptr, ptr %2, align 8
  %4 = getelementptr inbounds nuw %"class.pxrInternal_v0_24__pxrReserved__::Sdf_ParserValueContext", ptr %3, i32 0, i32 14
  store i8 0, ptr %4, align 8
  %5 = getelementptr inbounds nuw %"class.pxrInternal_v0_24__pxrReserved__::Sdf_ParserValueContext", ptr %3, i32 0, i32 15
  store i8 1, ptr %5, align 1
  %6 = getelementptr inbounds nuw %"class.pxrInternal_v0_24__pxrReserved__::Sdf_ParserValueContext", ptr %3, i32 0, i32 16
  call void @_ZNSt7__cxx1112basic_stringIcSt11char_traitsIcESaIcEE5clearEv(ptr noundef nonnull align 8 dereferenceable(32) %6) #10
  ret void
}